; Function Attrs: nounwind uwtable
define dso_local noundef i32 @_bt_relandgetbuf(ptr noundef %0, i32 noundef %1, i32 noundef %2, i32 noundef %3) local_unnamed_addr #0 {
  %.not = icmp eq i32 %1, 0
  br i1 %.not, label %6, label %5

5:                                                ; preds = %4
  tail call void @LockBuffer(i32 noundef %1, i32 noundef 0) #10
  br label %6

6:                                                ; preds = %5, %4
  %7 = tail call i32 @ReleaseAndReadBuffer(i32 noundef %1, ptr noundef %0, i32 noundef %2) #10
  tail call void @LockBuffer(i32 noundef %7, i32 noundef %3) #10
  tail call void @_bt_checkpage(ptr noundef %0, i32 noundef %7)
  ret i32 %7
}